target datalayout = "e-m:e-p270:32:32-p271:32:32-p272:64:64-i64:64-i128:128-f80:128-n8:16:32:64-S128"
target triple = "x86_64-unknown-linux-gnu"

%"struct.std::atomic" = type { %"struct.std::__atomic_base" }
%"struct.std::__atomic_base" = type { i32 }
%"class.icu_75::UObject" = type { ptr }
%"class.icu_75::CollationLoader" = type { ptr, ptr, %"class.icu_75::Locale", %"class.icu_75::Locale", [16 x i8], [16 x i8], i32, i8, ptr, ptr, ptr }
%"class.icu_75::Locale" = type <{ %"class.icu_75::UObject", [12 x i8], [6 x i8], [4 x i8], [2 x i8], i32, [4 x i8], ptr, [157 x i8], [3 x i8], ptr, i8, [7 x i8] }>
%"struct.icu_75::CollationCacheEntry" = type { %"class.icu_75::SharedObject", %"class.icu_75::Locale", ptr }
%"class.icu_75::SharedObject" = type { %"class.icu_75::UObject", i32, %"struct.std::atomic", ptr }

@.str.5 = private unnamed_addr constant [10 x i8] c"collation\00", align 1
@.str.6 = private unnamed_addr constant [8 x i8] c"default\00", align 1

; Function Attrs: mustprogress nounwind uwtable
define linkonce_odr noundef ptr @_ZNK6icu_756Locale7getNameEv(ptr noundef nonnull align 8 dereferenceable(217) %this) #0 comdat align 2 {
entry:
  %this.addr = alloca ptr, align 8
  store ptr %this, ptr %this.addr, align 8
  %this1 = load ptr, ptr %this.addr, align 8
  %fullName = getelementptr inbounds %"class.icu_75::Locale", ptr %this1, i32 0, i32 7
  %0 = load ptr, ptr %fullName, align 8
  ret ptr %0
}

; Function Attrs: mustprogress nounwind uwtable
define linkonce_odr noundef signext i8 @_ZNK6icu_756Locale7isBogusEv(ptr noundef nonnull align 8 dereferenceable(217) %this) #0 comdat align 2 {
entry:
  %this.addr = alloca ptr, align 8
  store ptr %this, ptr %this.addr, align 8
  %this1 = load ptr, ptr %this.addr, align 8
  %fIsBogus = getelementptr inbounds %"class.icu_75::Locale", ptr %this1, i32 0, i32 11
  %0 = load i8, ptr %fIsBogus, align 8
  ret i8 %0
}

; Function Attrs: mustprogress nounwind uwtable
define internal noundef signext i8 @_ZL9U_FAILURE10UErrorCode(i32 noundef %code) #0 {
entry:
  %code.addr = alloca i32, align 4
  store i32 %code, ptr %code.addr, align 4
  %0 = load i32, ptr %code.addr, align 4
  %cmp = icmp sgt i32 %0, 0
  %conv = zext i1 %cmp to i8
  ret i8 %conv
}

; Function Attrs: mustprogress uwtable
define void @_ZN6icu_7515CollationLoaderC2EPKNS_19CollationCacheEntryERKNS_6LocaleER10UErrorCode(ptr noundef nonnull align 8 dereferenceable(528) %this, ptr noundef %re, ptr noundef nonnull align 8 dereferenceable(217) %requested, ptr noundef nonnull align 4 dereferenceable(4) %errorCode) unnamed_addr #1 align 2 personality ptr @__gxx_personality_v0 {
entry:
  %this.addr = alloca ptr, align 8
  %re.addr = alloca ptr, align 8
  %requested.addr = alloca ptr, align 8
  %errorCode.addr = alloca ptr, align 8
  %exn.slot = alloca ptr, align 8
  %ehselector.slot = alloca i32, align 4
  %baseName = alloca ptr, align 8
  %ref.tmp = alloca %"class.icu_75::Locale", align 8
  %typeLength = alloca i32, align 4
  store ptr %this, ptr %this.addr, align 8
  store ptr %re, ptr %re.addr, align 8
  store ptr %requested, ptr %requested.addr, align 8
  store ptr %errorCode, ptr %errorCode.addr, align 8
  %this1 = load ptr, ptr %this.addr, align 8
  %cache = getelementptr inbounds %"class.icu_75::CollationLoader", ptr %this1, i32 0, i32 0
  %0 = load ptr, ptr %errorCode.addr, align 8
  %call = call noundef ptr @_ZN6icu_7512UnifiedCache11getInstanceER10UErrorCode(ptr noundef nonnull align 4 dereferenceable(4) %0)
  store ptr %call, ptr %cache, align 8
  %rootEntry = getelementptr inbounds %"class.icu_75::CollationLoader", ptr %this1, i32 0, i32 1
  %1 = load ptr, ptr %re.addr, align 8
  store ptr %1, ptr %rootEntry, align 8
  %validLocale = getelementptr inbounds %"class.icu_75::CollationLoader", ptr %this1, i32 0, i32 2
  %2 = load ptr, ptr %re.addr, align 8
  %validLocale2 = getelementptr inbounds %"struct.icu_75::CollationCacheEntry", ptr %2, i32 0, i32 1
  call void @_ZN6icu_756LocaleC1ERKS0_(ptr noundef nonnull align 8 dereferenceable(217) %validLocale, ptr noundef nonnull align 8 dereferenceable(217) %validLocale2)
  %locale = getelementptr inbounds %"class.icu_75::CollationLoader", ptr %this1, i32 0, i32 3
  %3 = load ptr, ptr %requested.addr, align 8
  invoke void @_ZN6icu_756LocaleC1ERKS0_(ptr noundef nonnull align 8 dereferenceable(217) %locale, ptr noundef nonnull align 8 dereferenceable(217) %3)
          to label %invoke.cont unwind label %lpad

invoke.cont:                                      ; preds = %entry
  %typesTried = getelementptr inbounds %"class.icu_75::CollationLoader", ptr %this1, i32 0, i32 6
  store i32 0, ptr %typesTried, align 8
  %typeFallback = getelementptr inbounds %"class.icu_75::CollationLoader", ptr %this1, i32 0, i32 7
  store i8 0, ptr %typeFallback, align 4
  %bundle = getelementptr inbounds %"class.icu_75::CollationLoader", ptr %this1, i32 0, i32 8
  store ptr null, ptr %bundle, align 8
  %collations = getelementptr inbounds %"class.icu_75::CollationLoader", ptr %this1, i32 0, i32 9
  store ptr null, ptr %collations, align 8
  %data = getelementptr inbounds %"class.icu_75::CollationLoader", ptr %this1, i32 0, i32 10
  store ptr null, ptr %data, align 8
  %type = getelementptr inbounds %"class.icu_75::CollationLoader", ptr %this1, i32 0, i32 4
  %arrayidx = getelementptr inbounds [16 x i8], ptr %type, i64 0, i64 0
  store i8 0, ptr %arrayidx, align 8
  %defaultType = getelementptr inbounds %"class.icu_75::CollationLoader", ptr %this1, i32 0, i32 5
  %arrayidx3 = getelementptr inbounds [16 x i8], ptr %defaultType, i64 0, i64 0
  store i8 0, ptr %arrayidx3, align 8
  %4 = load ptr, ptr %errorCode.addr, align 8
  %5 = load i32, ptr %4, align 4
  %call6 = invoke noundef signext i8 @_ZL9U_FAILURE10UErrorCode(i32 noundef %5)
          to label %invoke.cont5 unwind label %lpad4

invoke.cont5:                                     ; preds = %invoke.cont
  %tobool = icmp ne i8 %call6, 0
  br i1 %tobool, label %if.then, label %if.end

if.then:                                          ; preds = %invoke.cont5
  br label %if.end61

lpad:                                             ; preds = %entry
  %6 = landingpad { ptr, i32 }
          cleanup
  %7 = extractvalue { ptr, i32 } %6, 0
  store ptr %7, ptr %exn.slot, align 8
  %8 = extractvalue { ptr, i32 } %6, 1
  store i32 %8, ptr %ehselector.slot, align 4
  br label %ehcleanup

lpad4:                                            ; preds = %invoke.cont53, %if.else50, %if.else, %invoke.cont31, %if.end29, %invoke.cont21, %if.then20, %invoke.cont14, %if.end12, %if.end, %invoke.cont
  %9 = landingpad { ptr, i32 }
          cleanup
  %10 = extractvalue { ptr, i32 } %9, 0
  store ptr %10, ptr %exn.slot, align 8
  %11 = extractvalue { ptr, i32 } %9, 1
  store i32 %11, ptr %ehselector.slot, align 4
  call void @_ZN6icu_756LocaleD1Ev(ptr noundef nonnull align 8 dereferenceable(217) %locale) #9
  br label %ehcleanup

if.end:                                           ; preds = %invoke.cont5
  %locale7 = getelementptr inbounds %"class.icu_75::CollationLoader", ptr %this1, i32 0, i32 3
  %call9 = invoke noundef signext i8 @_ZNK6icu_756Locale7isBogusEv(ptr noundef nonnull align 8 dereferenceable(217) %locale7)
          to label %invoke.cont8 unwind label %lpad4

invoke.cont8:                                     ; preds = %if.end
  %tobool10 = icmp ne i8 %call9, 0
  br i1 %tobool10, label %if.then11, label %if.end12

if.then11:                                        ; preds = %invoke.cont8
  %12 = load ptr, ptr %errorCode.addr, align 8
  store i32 1, ptr %12, align 4
  br label %if.end61

if.end12:                                         ; preds = %invoke.cont8
  %locale13 = getelementptr inbounds %"class.icu_75::CollationLoader", ptr %this1, i32 0, i32 3
  %call15 = invoke noundef ptr @_ZNK6icu_756Locale11getBaseNameEv(ptr noundef nonnull align 8 dereferenceable(217) %locale13)
          to label %invoke.cont14 unwind label %lpad4

invoke.cont14:                                    ; preds = %if.end12
  store ptr %call15, ptr %baseName, align 8
  %locale16 = getelementptr inbounds %"class.icu_75::CollationLoader", ptr %this1, i32 0, i32 3
  %call18 = invoke noundef ptr @_ZNK6icu_756Locale7getNameEv(ptr noundef nonnull align 8 dereferenceable(217) %locale16)
          to label %invoke.cont17 unwind label %lpad4

invoke.cont17:                                    ; preds = %invoke.cont14
  %13 = load ptr, ptr %baseName, align 8
  %call19 = call i32 @strcmp(ptr noundef %call18, ptr noundef %13) #12
  %cmp = icmp ne i32 %call19, 0
  br i1 %cmp, label %if.then20, label %if.end61

if.then20:                                        ; preds = %invoke.cont17
  %14 = load ptr, ptr %baseName, align 8
  invoke void @_ZN6icu_756LocaleC1EPKcS2_S2_S2_(ptr noundef nonnull align 8 dereferenceable(217) %ref.tmp, ptr noundef %14, ptr noundef null, ptr noundef null, ptr noundef null)
          to label %invoke.cont21 unwind label %lpad4

invoke.cont21:                                    ; preds = %if.then20
  %locale22 = getelementptr inbounds %"class.icu_75::CollationLoader", ptr %this1, i32 0, i32 3
  %call23 = call noundef nonnull align 8 dereferenceable(217) ptr @_ZN6icu_756LocaleaSEOS0_(ptr noundef nonnull align 8 dereferenceable(217) %locale22, ptr noundef nonnull align 8 dereferenceable(217) %ref.tmp) #9
  call void @_ZN6icu_756LocaleD1Ev(ptr noundef nonnull align 8 dereferenceable(217) %ref.tmp) #9
  %locale24 = getelementptr inbounds %"class.icu_75::CollationLoader", ptr %this1, i32 0, i32 3
  %call26 = invoke noundef signext i8 @_ZNK6icu_756Locale7isBogusEv(ptr noundef nonnull align 8 dereferenceable(217) %locale24)
          to label %invoke.cont25 unwind label %lpad4

invoke.cont25:                                    ; preds = %invoke.cont21
  %tobool27 = icmp ne i8 %call26, 0
  br i1 %tobool27, label %if.then28, label %if.end29

if.then28:                                        ; preds = %invoke.cont25
  %15 = load ptr, ptr %errorCode.addr, align 8
  store i32 1, ptr %15, align 4
  br label %if.end61

if.end29:                                         ; preds = %invoke.cont25
  %16 = load ptr, ptr %requested.addr, align 8
  %type30 = getelementptr inbounds %"class.icu_75::CollationLoader", ptr %this1, i32 0, i32 4
  %arraydecay = getelementptr inbounds [16 x i8], ptr %type30, i64 0, i64 0
  %17 = load ptr, ptr %errorCode.addr, align 8
  %call32 = invoke noundef i32 @_ZNK6icu_756Locale15getKeywordValueEPKcPciR10UErrorCode(ptr noundef nonnull align 8 dereferenceable(217) %16, ptr noundef @.str.5, ptr noundef %arraydecay, i32 noundef 15, ptr noundef nonnull align 4 dereferenceable(4) %17)
          to label %invoke.cont31 unwind label %lpad4

invoke.cont31:                                    ; preds = %if.end29
  store i32 %call32, ptr %typeLength, align 4
  %18 = load ptr, ptr %errorCode.addr, align 8
  %19 = load i32, ptr %18, align 4
  %call34 = invoke noundef signext i8 @_ZL9U_FAILURE10UErrorCode(i32 noundef %19)
          to label %invoke.cont33 unwind label %lpad4

invoke.cont33:                                    ; preds = %invoke.cont31
  %tobool35 = icmp ne i8 %call34, 0
  br i1 %tobool35, label %if.then36, label %if.end37

if.then36:                                        ; preds = %invoke.cont33
  %20 = load ptr, ptr %errorCode.addr, align 8
  store i32 1, ptr %20, align 4
  br label %if.end61

if.end37:                                         ; preds = %invoke.cont33
  %type38 = getelementptr inbounds %"class.icu_75::CollationLoader", ptr %this1, i32 0, i32 4
  %21 = load i32, ptr %typeLength, align 4
  %idxprom = sext i32 %21 to i64
  %arrayidx39 = getelementptr inbounds [16 x i8], ptr %type38, i64 0, i64 %idxprom
  store i8 0, ptr %arrayidx39, align 1
  %22 = load i32, ptr %typeLength, align 4
  %cmp40 = icmp eq i32 %22, 0
  br i1 %cmp40, label %if.then41, label %if.else

if.then41:                                        ; preds = %if.end37
  br label %if.end60

if.else:                                          ; preds = %if.end37
  %type42 = getelementptr inbounds %"class.icu_75::CollationLoader", ptr %this1, i32 0, i32 4
  %arraydecay43 = getelementptr inbounds [16 x i8], ptr %type42, i64 0, i64 0
  %call45 = invoke i32 @uprv_stricmp_75(ptr noundef %arraydecay43, ptr noundef @.str.6)
          to label %invoke.cont44 unwind label %lpad4

invoke.cont44:                                    ; preds = %if.else
  %cmp46 = icmp eq i32 %call45, 0
  br i1 %cmp46, label %if.then47, label %if.else50

if.then47:                                        ; preds = %invoke.cont44
  %type48 = getelementptr inbounds %"class.icu_75::CollationLoader", ptr %this1, i32 0, i32 4
  %arrayidx49 = getelementptr inbounds [16 x i8], ptr %type48, i64 0, i64 0
  store i8 0, ptr %arrayidx49, align 8
  br label %if.end59

if.else50:                                        ; preds = %invoke.cont44
  %type51 = getelementptr inbounds %"class.icu_75::CollationLoader", ptr %this1, i32 0, i32 4
  %arraydecay52 = getelementptr inbounds [16 x i8], ptr %type51, i64 0, i64 0
  %call54 = invoke ptr @T_CString_toLowerCase_75(ptr noundef %arraydecay52)
          to label %invoke.cont53 unwind label %lpad4

invoke.cont53:                                    ; preds = %if.else50
  %locale55 = getelementptr inbounds %"class.icu_75::CollationLoader", ptr %this1, i32 0, i32 3
  %type56 = getelementptr inbounds %"class.icu_75::CollationLoader", ptr %this1, i32 0, i32 4
  %arraydecay57 = getelementptr inbounds [16 x i8], ptr %type56, i64 0, i64 0
  %23 = load ptr, ptr %errorCode.addr, align 8
  invoke void @_ZN6icu_756Locale15setKeywordValueEPKcS2_R10UErrorCode(ptr noundef nonnull align 8 dereferenceable(217) %locale55, ptr noundef @.str.5, ptr noundef %arraydecay57, ptr noundef nonnull align 4 dereferenceable(4) %23)
          to label %invoke.cont58 unwind label %lpad4

invoke.cont58:                                    ; preds = %invoke.cont53
  br label %if.end59

if.end59:                                         ; preds = %invoke.cont58, %if.then47
  br label %if.end60

if.end60:                                         ; preds = %if.end59, %if.then41
  br label %if.end61

if.end61:                                         ; preds = %if.end60, %if.then36, %if.then28, %invoke.cont17, %if.then11, %if.then
  ret void

ehcleanup:                                        ; preds = %lpad4, %lpad
  call void @_ZN6icu_756LocaleD1Ev(ptr noundef nonnull align 8 dereferenceable(217) %validLocale) #9
  br label %eh.resume

eh.resume:                                        ; preds = %ehcleanup
  %exn = load ptr, ptr %exn.slot, align 8
  %sel = load i32, ptr %ehselector.slot, align 4
  %lpad.val = insertvalue { ptr, i32 } poison, ptr %exn, 0
  %lpad.val62 = insertvalue { ptr, i32 } %lpad.val, i32 %sel, 1
  resume { ptr, i32 } %lpad.val62
}