; Function Attrs: mustprogress uwtable
define void @_ZN6icu_7515CollationLoaderC2EPKNS_19CollationCacheEntryERKNS_6LocaleER10UErrorCode(ptr noundef nonnull align 8 dereferenceable(528) %this, ptr noundef %re, ptr noundef nonnull align 8 dereferenceable(217) %requested, ptr noundef nonnull align 4 dereferenceable(4) %errorCode) unnamed_addr #1 align 2 personality ptr @__gxx_personality_v0 {
entry:
  %ref.tmp = alloca %"class.icu_75::Locale", align 8
  %call = tail call noundef ptr @_ZN6icu_7512UnifiedCache11getInstanceER10UErrorCode(ptr noundef nonnull align 4 dereferenceable(4) %errorCode)
  store ptr %call, ptr %this, align 8
  %rootEntry = getelementptr inbounds i8, ptr %this, i64 8
  store ptr %re, ptr %rootEntry, align 8
  %validLocale = getelementptr inbounds i8, ptr %this, i64 16
  %validLocale2 = getelementptr inbounds i8, ptr %re, i64 24
  tail call void @_ZN6icu_756LocaleC1ERKS0_(ptr noundef nonnull align 8 dereferenceable(217) %validLocale, ptr noundef nonnull align 8 dereferenceable(217) %validLocale2)
  %locale = getelementptr inbounds i8, ptr %this, i64 240
  invoke void @_ZN6icu_756LocaleC1ERKS0_(ptr noundef nonnull align 8 dereferenceable(217) %locale, ptr noundef nonnull align 8 dereferenceable(217) %requested)
          to label %invoke.cont unwind label %lpad

invoke.cont:                                      ; preds = %entry
  %typesTried = getelementptr inbounds i8, ptr %this, i64 496
  store i32 0, ptr %typesTried, align 8
  %typeFallback = getelementptr inbounds i8, ptr %this, i64 500
  store i8 0, ptr %typeFallback, align 4
  %bundle = getelementptr inbounds i8, ptr %this, i64 504
  %type = getelementptr inbounds i8, ptr %this, i64 464
  store i8 0, ptr %type, align 8
  %defaultType = getelementptr inbounds i8, ptr %this, i64 480
  store i8 0, ptr %defaultType, align 8
  tail call void @llvm.memset.p0.i64(ptr noundef nonnull align 8 dereferenceable(24) %bundle, i8 0, i64 24, i1 false)
  %0 = load i32, ptr %errorCode, align 4
  %cmp.i = icmp slt i32 %0, 1
  br i1 %cmp.i, label %if.end, label %if.end61

lpad:                                             ; preds = %entry
  %1 = landingpad { ptr, i32 }
          cleanup
  br label %ehcleanup

lpad4:                                            ; preds = %invoke.cont53, %if.else50, %if.else, %if.end29, %if.then20, %if.end12
  %2 = landingpad { ptr, i32 }
          cleanup
  call void @_ZN6icu_756LocaleD1Ev(ptr noundef nonnull align 8 dereferenceable(217) %locale) #13
  br label %ehcleanup

if.end:                                           ; preds = %invoke.cont
  %fIsBogus.i = getelementptr inbounds i8, ptr %this, i64 456
  %3 = load i8, ptr %fIsBogus.i, align 8
  %tobool10.not = icmp eq i8 %3, 0
  br i1 %tobool10.not, label %if.end12, label %if.then11

if.then11:                                        ; preds = %if.end
  store i32 1, ptr %errorCode, align 4
  br label %if.end61

if.end12:                                         ; preds = %if.end
  %call15 = invoke noundef ptr @_ZNK6icu_756Locale11getBaseNameEv(ptr noundef nonnull align 8 dereferenceable(217) %locale)
          to label %invoke.cont14 unwind label %lpad4

invoke.cont14:                                    ; preds = %if.end12
  %fullName.i = getelementptr inbounds i8, ptr %this, i64 280
  %4 = load ptr, ptr %fullName.i, align 8
  %call19 = tail call i32 @strcmp(ptr noundef nonnull dereferenceable(1) %4, ptr noundef nonnull dereferenceable(1) %call15) #16
  %cmp.not = icmp eq i32 %call19, 0
  br i1 %cmp.not, label %if.end61, label %if.then20

if.then20:                                        ; preds = %invoke.cont14
  invoke void @_ZN6icu_756LocaleC1EPKcS2_S2_S2_(ptr noundef nonnull align 8 dereferenceable(217) %ref.tmp, ptr noundef %call15, ptr noundef null, ptr noundef null, ptr noundef null)
          to label %invoke.cont21 unwind label %lpad4

invoke.cont21:                                    ; preds = %if.then20
  %call23 = call noundef nonnull align 8 dereferenceable(217) ptr @_ZN6icu_756LocaleaSEOS0_(ptr noundef nonnull align 8 dereferenceable(217) %locale, ptr noundef nonnull align 8 dereferenceable(217) %ref.tmp) #13
  call void @_ZN6icu_756LocaleD1Ev(ptr noundef nonnull align 8 dereferenceable(217) %ref.tmp) #13
  %5 = load i8, ptr %fIsBogus.i, align 8
  %tobool27.not = icmp eq i8 %5, 0
  br i1 %tobool27.not, label %if.end29, label %if.then28

if.then28:                                        ; preds = %invoke.cont21
  store i32 1, ptr %errorCode, align 4
  br label %if.end61

if.end29:                                         ; preds = %invoke.cont21
  %call32 = invoke noundef i32 @_ZNK6icu_756Locale15getKeywordValueEPKcPciR10UErrorCode(ptr noundef nonnull align 8 dereferenceable(217) %requested, ptr noundef nonnull @.str.5, ptr noundef nonnull %type, i32 noundef 15, ptr noundef nonnull align 4 dereferenceable(4) %errorCode)
          to label %invoke.cont31 unwind label %lpad4

invoke.cont31:                                    ; preds = %if.end29
  %6 = load i32, ptr %errorCode, align 4
  %cmp.i14 = icmp slt i32 %6, 1
  br i1 %cmp.i14, label %if.end37, label %if.then36

if.then36:                                        ; preds = %invoke.cont31
  store i32 1, ptr %errorCode, align 4
  br label %if.end61

if.end37:                                         ; preds = %invoke.cont31
  %idxprom = sext i32 %call32 to i64
  %arrayidx39 = getelementptr inbounds [16 x i8], ptr %type, i64 0, i64 %idxprom
  store i8 0, ptr %arrayidx39, align 1
  %cmp40 = icmp eq i32 %call32, 0
  br i1 %cmp40, label %if.end61, label %if.else

if.else:                                          ; preds = %if.end37
  %call45 = invoke i32 @uprv_stricmp_75(ptr noundef nonnull %type, ptr noundef nonnull @.str.6)
          to label %invoke.cont44 unwind label %lpad4

invoke.cont44:                                    ; preds = %if.else
  %cmp46 = icmp eq i32 %call45, 0
  br i1 %cmp46, label %if.then47, label %if.else50

if.then47:                                        ; preds = %invoke.cont44
  store i8 0, ptr %type, align 8
  br label %if.end61

if.else50:                                        ; preds = %invoke.cont44
  %call54 = invoke ptr @T_CString_toLowerCase_75(ptr noundef nonnull %type)
          to label %invoke.cont53 unwind label %lpad4

invoke.cont53:                                    ; preds = %if.else50
  invoke void @_ZN6icu_756Locale15setKeywordValueEPKcS2_R10UErrorCode(ptr noundef nonnull align 8 dereferenceable(217) %locale, ptr noundef nonnull @.str.5, ptr noundef nonnull %type, ptr noundef nonnull align 4 dereferenceable(4) %errorCode)
          to label %if.end61 unwind label %lpad4

if.end61:                                         ; preds = %if.end37, %invoke.cont53, %if.then47, %invoke.cont, %if.then36, %if.then28, %invoke.cont14, %if.then11
  ret void

ehcleanup:                                        ; preds = %lpad4, %lpad
  %.pn = phi { ptr, i32 } [ %2, %lpad4 ], [ %1, %lpad ]
  call void @_ZN6icu_756LocaleD1Ev(ptr noundef nonnull align 8 dereferenceable(217) %validLocale) #13
  resume { ptr, i32 } %.pn
}